
menu_c.elf:     file format elf32-avr

Sections:
Idx Name          Size      VMA       LMA       File off  Algn
  0 .text         000004ba  00000000  00000000  00000094  2**1
                  CONTENTS, ALLOC, LOAD, READONLY, CODE
  1 .data         0000003c  00800060  000004ba  0000054e  2**0
                  CONTENTS, ALLOC, LOAD, DATA
  2 .bss          00000009  0080009c  0080009c  0000058a  2**0
                  ALLOC
  3 .stab         000006cc  00000000  00000000  0000058c  2**2
                  CONTENTS, READONLY, DEBUGGING
  4 .stabstr      00000097  00000000  00000000  00000c58  2**0
                  CONTENTS, READONLY, DEBUGGING
  5 .comment      0000002f  00000000  00000000  00000cef  2**0
                  CONTENTS, READONLY
  6 .debug_aranges 000000b8  00000000  00000000  00000d1e  2**0
                  CONTENTS, READONLY, DEBUGGING
  7 .debug_info   00001460  00000000  00000000  00000dd6  2**0
                  CONTENTS, READONLY, DEBUGGING
  8 .debug_abbrev 0000081d  00000000  00000000  00002236  2**0
                  CONTENTS, READONLY, DEBUGGING
  9 .debug_line   00000724  00000000  00000000  00002a53  2**0
                  CONTENTS, READONLY, DEBUGGING
 10 .debug_frame  0000026c  00000000  00000000  00003178  2**2
                  CONTENTS, READONLY, DEBUGGING
 11 .debug_str    0000035c  00000000  00000000  000033e4  2**0
                  CONTENTS, READONLY, DEBUGGING
 12 .debug_loc    0000083f  00000000  00000000  00003740  2**0
                  CONTENTS, READONLY, DEBUGGING
 13 .debug_ranges 00000028  00000000  00000000  00003f7f  2**0
                  CONTENTS, READONLY, DEBUGGING

Disassembly of section .text:

00000000 <__vectors>:
   0:	10 c0       	rjmp	.+32     	; 0x22 <__ctors_end>
   2:	2a c0       	rjmp	.+84     	; 0x58 <__bad_interrupt>
   4:	29 c0       	rjmp	.+82     	; 0x58 <__bad_interrupt>
   6:	28 c0       	rjmp	.+80     	; 0x58 <__bad_interrupt>
   8:	27 c0       	rjmp	.+78     	; 0x58 <__bad_interrupt>
   a:	26 c0       	rjmp	.+76     	; 0x58 <__bad_interrupt>
   c:	25 c0       	rjmp	.+74     	; 0x58 <__bad_interrupt>
   e:	24 c0       	rjmp	.+72     	; 0x58 <__bad_interrupt>
  10:	23 c0       	rjmp	.+70     	; 0x58 <__bad_interrupt>
  12:	22 c0       	rjmp	.+68     	; 0x58 <__bad_interrupt>
  14:	21 c0       	rjmp	.+66     	; 0x58 <__bad_interrupt>
  16:	20 c0       	rjmp	.+64     	; 0x58 <__bad_interrupt>
  18:	1f c0       	rjmp	.+62     	; 0x58 <__bad_interrupt>
  1a:	1e c0       	rjmp	.+60     	; 0x58 <__bad_interrupt>
  1c:	1d c0       	rjmp	.+58     	; 0x58 <__bad_interrupt>
  1e:	1c c0       	rjmp	.+56     	; 0x58 <__bad_interrupt>
  20:	1b c0       	rjmp	.+54     	; 0x58 <__bad_interrupt>

00000022 <__ctors_end>:
  22:	11 24       	eor	r1, r1
  24:	1f be       	out	0x3f, r1	; 63
  26:	cf e5       	ldi	r28, 0x5F	; 95
  28:	d2 e0       	ldi	r29, 0x02	; 2
  2a:	de bf       	out	0x3e, r29	; 62
  2c:	cd bf       	out	0x3d, r28	; 61

0000002e <__do_copy_data>:
  2e:	10 e0       	ldi	r17, 0x00	; 0
  30:	a0 e6       	ldi	r26, 0x60	; 96
  32:	b0 e0       	ldi	r27, 0x00	; 0
  34:	ea eb       	ldi	r30, 0xBA	; 186
  36:	f4 e0       	ldi	r31, 0x04	; 4
  38:	02 c0       	rjmp	.+4      	; 0x3e <__SP_H__>
  3a:	05 90       	lpm	r0, Z+
  3c:	0d 92       	st	X+, r0
  3e:	ac 39       	cpi	r26, 0x9C	; 156
  40:	b1 07       	cpc	r27, r17
  42:	d9 f7       	brne	.-10     	; 0x3a <__do_copy_data+0xc>

00000044 <__do_clear_bss>:
  44:	20 e0       	ldi	r18, 0x00	; 0
  46:	ac e9       	ldi	r26, 0x9C	; 156
  48:	b0 e0       	ldi	r27, 0x00	; 0
  4a:	01 c0       	rjmp	.+2      	; 0x4e <.do_clear_bss_start>

0000004c <.do_clear_bss_loop>:
  4c:	1d 92       	st	X+, r1

0000004e <.do_clear_bss_start>:
  4e:	a5 3a       	cpi	r26, 0xA5	; 165
  50:	b2 07       	cpc	r27, r18
  52:	e1 f7       	brne	.-8      	; 0x4c <.do_clear_bss_loop>
  54:	1f d2       	rcall	.+1086   	; 0x494 <main>
  56:	2f c2       	rjmp	.+1118   	; 0x4b6 <_exit>

00000058 <__bad_interrupt>:
  58:	d3 cf       	rjmp	.-90     	; 0x0 <__vectors>

0000005a <print_splash>:
	AppSettings.currentLayer = &SettingsLayer;
	AppSettings.Status = 7;*/
}

void print_splash() {
	LCD_STR("Protocol Example");
  5a:	88 e7       	ldi	r24, 0x78	; 120
  5c:	90 e0       	ldi	r25, 0x00	; 0
  5e:	e2 d0       	rcall	.+452    	; 0x224 <LCD_STR>
	LCD_RAM(80);
  60:	80 e5       	ldi	r24, 0x50	; 80
  62:	17 d1       	rcall	.+558    	; 0x292 <LCD_RAM>
	LCD_STR("c Wicki/Kasipillai");
  64:	89 e8       	ldi	r24, 0x89	; 137
  66:	90 e0       	ldi	r25, 0x00	; 0
  68:	dd d0       	rcall	.+442    	; 0x224 <LCD_STR>
	#else
		//round up by default
		__ticks_dc = (uint32_t)(ceil(fabs(__tmp)));
	#endif

	__builtin_avr_delay_cycles(__ticks_dc);
  6a:	2f ef       	ldi	r18, 0xFF	; 255
  6c:	8f eb       	ldi	r24, 0xBF	; 191
  6e:	91 e2       	ldi	r25, 0x21	; 33
  70:	21 50       	subi	r18, 0x01	; 1
  72:	80 40       	sbci	r24, 0x00	; 0
  74:	90 40       	sbci	r25, 0x00	; 0
  76:	e1 f7       	brne	.-8      	; 0x70 <print_splash+0x16>
  78:	00 c0       	rjmp	.+0      	; 0x7a <print_splash+0x20>
  7a:	00 00       	nop
	_delay_ms(3000);
	LCD_CLR();
  7c:	de c0       	rjmp	.+444    	; 0x23a <LCD_CLR>

0000007e <init>:
  7e:	8f ef       	ldi	r24, 0xFF	; 255
  80:	97 e4       	ldi	r25, 0x47	; 71
  82:	01 97       	sbiw	r24, 0x01	; 1
  84:	f1 f7       	brne	.-4      	; 0x82 <init+0x4>
  86:	00 c0       	rjmp	.+0      	; 0x88 <init+0xa>
  88:	00 00       	nop

uint8_t HH,MM,SS;

void init() {
	_delay_ms(20);
	LCD_Init();
  8a:	81 d0       	rcall	.+258    	; 0x18e <LCD_Init>

	print_splash();
  8c:	e6 cf       	rjmp	.-52     	; 0x5a <print_splash>

0000008e <display>:
	LCD_STR("c Wicki/Kasipillai");
	_delay_ms(3000);
	LCD_CLR();
}

void display() {
  8e:	cf 93       	push	r28
  90:	df 93       	push	r29
	AppSettings.currentLayer->update(AppSettings.Status);
  92:	e0 91 62 00 	lds	r30, 0x0062
  96:	f0 91 63 00 	lds	r31, 0x0063
  9a:	c1 e6       	ldi	r28, 0x61	; 97
  9c:	d0 e0       	ldi	r29, 0x00	; 0
  9e:	88 81       	ld	r24, Y
  a0:	01 80       	ldd	r0, Z+1	; 0x01
  a2:	f2 81       	ldd	r31, Z+2	; 0x02
  a4:	e0 2d       	mov	r30, r0
  a6:	87 70       	andi	r24, 0x07	; 7
  a8:	09 95       	icall
	// nach update flags wieder loeschen
	AppSettings.Status = 0;
  aa:	88 81       	ld	r24, Y
  ac:	88 7f       	andi	r24, 0xF8	; 248
  ae:	88 83       	st	Y, r24
}
  b0:	df 91       	pop	r29
  b2:	cf 91       	pop	r28
  b4:	08 95       	ret

000000b6 <process>:

void process(uint8_t Input) {
	if(Input != 0xFF) {
  b6:	8f 3f       	cpi	r24, 0xFF	; 255
  b8:	b1 f1       	breq	.+108    	; 0x126 <process+0x70>
		field *Field = AppSettings.currentField;
  ba:	a0 91 64 00 	lds	r26, 0x0064
  be:	b0 91 65 00 	lds	r27, 0x0065
		command Command = {NULL};
		switch(Input) { 
  c2:	85 30       	cpi	r24, 0x05	; 5
  c4:	c9 f0       	breq	.+50     	; 0xf8 <process+0x42>
  c6:	28 f4       	brcc	.+10     	; 0xd2 <process+0x1c>
  c8:	81 30       	cpi	r24, 0x01	; 1
  ca:	41 f0       	breq	.+16     	; 0xdc <process+0x26>
  cc:	84 30       	cpi	r24, 0x04	; 4
  ce:	59 f5       	brne	.+86     	; 0x126 <process+0x70>
  d0:	0c c0       	rjmp	.+24     	; 0xea <process+0x34>
  d2:	86 30       	cpi	r24, 0x06	; 6
  d4:	c1 f0       	breq	.+48     	; 0x106 <process+0x50>
  d6:	89 30       	cpi	r24, 0x09	; 9
  d8:	31 f5       	brne	.+76     	; 0x126 <process+0x70>
  da:	1c c0       	rjmp	.+56     	; 0x114 <process+0x5e>
			case UP:
				Command = Field->Up;
  dc:	11 96       	adiw	r26, 0x01	; 1
  de:	ed 91       	ld	r30, X+
  e0:	fc 91       	ld	r31, X
  e2:	12 97       	sbiw	r26, 0x02	; 2
  e4:	13 96       	adiw	r26, 0x03	; 3
  e6:	8c 91       	ld	r24, X
				break;
  e8:	1b c0       	rjmp	.+54     	; 0x120 <process+0x6a>
			case LEFT:
				Command = Field->Left;
  ea:	14 96       	adiw	r26, 0x04	; 4
  ec:	ed 91       	ld	r30, X+
  ee:	fc 91       	ld	r31, X
  f0:	15 97       	sbiw	r26, 0x05	; 5
  f2:	16 96       	adiw	r26, 0x06	; 6
  f4:	8c 91       	ld	r24, X
				break;
  f6:	14 c0       	rjmp	.+40     	; 0x120 <process+0x6a>
			case ENTER:
				Command = Field->Enter;
  f8:	17 96       	adiw	r26, 0x07	; 7
  fa:	ed 91       	ld	r30, X+
  fc:	fc 91       	ld	r31, X
  fe:	18 97       	sbiw	r26, 0x08	; 8
 100:	19 96       	adiw	r26, 0x09	; 9
 102:	8c 91       	ld	r24, X
				break;
 104:	0d c0       	rjmp	.+26     	; 0x120 <process+0x6a>
			case RIGHT:
				Command = Field->Right;
 106:	1a 96       	adiw	r26, 0x0a	; 10
 108:	ed 91       	ld	r30, X+
 10a:	fc 91       	ld	r31, X
 10c:	1b 97       	sbiw	r26, 0x0b	; 11
 10e:	1c 96       	adiw	r26, 0x0c	; 12
 110:	8c 91       	ld	r24, X
				break;
 112:	06 c0       	rjmp	.+12     	; 0x120 <process+0x6a>
			case DOWN:
				Command = Field->Down;
 114:	1d 96       	adiw	r26, 0x0d	; 13
 116:	ed 91       	ld	r30, X+
 118:	fc 91       	ld	r31, X
 11a:	1e 97       	sbiw	r26, 0x0e	; 14
 11c:	1f 96       	adiw	r26, 0x0f	; 15
 11e:	8c 91       	ld	r24, X
				break;
		}		
		if(Command.Payload != NULL) {
 120:	30 97       	sbiw	r30, 0x00	; 0
 122:	09 f0       	breq	.+2      	; 0x126 <process+0x70>
			Command.Payload(Command.Arg);
 124:	09 94       	ijmp
 126:	08 95       	ret

00000128 <function_set>:
*
* Beschreibung: Berechnet den Wert aus einer Hochrechnung aus
*
**************************************************************************/
void function_set(unsigned char p_byte){
	LCD &= ~(1 << RS);
 128:	ac 98       	cbi	0x15, 4	; 21
	LCD = p_byte;
 12a:	85 bb       	out	0x15, r24	; 21
	LCD |= (1 << E);
 12c:	ad 9a       	sbi	0x15, 5	; 21
	LCD &= ~(1 << E);
 12e:	ad 98       	cbi	0x15, 5	; 21
	LCD |= (1 << RS);
 130:	ac 9a       	sbi	0x15, 4	; 21
 132:	08 95       	ret

00000134 <swap_byte>:
	unsigned char nibble2 = p_byte & 0xF0;
	nibble1 = nibble1 << 4;
	nibble2 = nibble2 >> 4;
	p_byte = nibble1 | nibble2;
	return p_byte;
}
 134:	82 95       	swap	r24
 136:	08 95       	ret

00000138 <write>:
* Beschreibung: Berechnet den Wert aus einer Hochrechnung aus
*
**************************************************************************/
void write(unsigned char p_byte){
	unsigned char p_write;
	LCD |= (1 << RS);
 138:	ac 9a       	sbi	0x15, 4	; 21
	for(unsigned char Count = 0; Count < 2; Count ++)
	{
		p_byte = swap_byte(p_byte);
 13a:	fc df       	rcall	.-8      	; 0x134 <swap_byte>
		p_write = p_byte & 0x0F;
 13c:	98 2f       	mov	r25, r24
 13e:	9f 70       	andi	r25, 0x0F	; 15
		p_write |= 0x10;
 140:	90 61       	ori	r25, 0x10	; 16
		LCD = p_write;
 142:	95 bb       	out	0x15, r25	; 21
		LCD |= (1 << E);
 144:	ad 9a       	sbi	0x15, 5	; 21
		LCD &= ~(1 << E);
 146:	ad 98       	cbi	0x15, 5	; 21
void write(unsigned char p_byte){
	unsigned char p_write;
	LCD |= (1 << RS);
	for(unsigned char Count = 0; Count < 2; Count ++)
	{
		p_byte = swap_byte(p_byte);
 148:	f5 df       	rcall	.-22     	; 0x134 <swap_byte>
		p_write = p_byte & 0x0F;
 14a:	8f 70       	andi	r24, 0x0F	; 15
		p_write |= 0x10;
 14c:	80 61       	ori	r24, 0x10	; 16
		LCD = p_write;
 14e:	85 bb       	out	0x15, r24	; 21
		LCD |= (1 << E);
 150:	ad 9a       	sbi	0x15, 5	; 21
		LCD &= ~(1 << E);
 152:	ad 98       	cbi	0x15, 5	; 21
 154:	87 e8       	ldi	r24, 0x87	; 135
 156:	93 e1       	ldi	r25, 0x13	; 19
 158:	01 97       	sbiw	r24, 0x01	; 1
 15a:	f1 f7       	brne	.-4      	; 0x158 <write+0x20>
 15c:	00 c0       	rjmp	.+0      	; 0x15e <write+0x26>
 15e:	00 00       	nop
	}
	_delay_ms(20);
	LCD &= ~(1 << RS);
 160:	ac 98       	cbi	0x15, 4	; 21
 162:	08 95       	ret

00000164 <LCD_CHR>:
*
* Beschreibung: Berechnet den Wert aus einer Hochrechnung aus
*
**************************************************************************/
void LCD_CHR(unsigned char p_byte){
	write(p_byte);
 164:	e9 cf       	rjmp	.-46     	; 0x138 <write>

00000166 <commands>:
* Beschreibung: Berechnet den Wert aus einer Hochrechnung aus
*
**************************************************************************/
void commands(unsigned char p_byte){
	unsigned char p_write;
	LCD &= ~(1 << RS);
 166:	ac 98       	cbi	0x15, 4	; 21
	for(unsigned char Count = 0; Count < 2; Count ++)
	{
		p_byte = swap_byte(p_byte);
 168:	e5 df       	rcall	.-54     	; 0x134 <swap_byte>
		p_write = p_byte & 0x0F;
 16a:	98 2f       	mov	r25, r24
 16c:	9f 70       	andi	r25, 0x0F	; 15
		LCD = p_write;
 16e:	95 bb       	out	0x15, r25	; 21
		LCD |= (1 << E);
 170:	ad 9a       	sbi	0x15, 5	; 21
		LCD &= ~(1 << E);
 172:	ad 98       	cbi	0x15, 5	; 21
void commands(unsigned char p_byte){
	unsigned char p_write;
	LCD &= ~(1 << RS);
	for(unsigned char Count = 0; Count < 2; Count ++)
	{
		p_byte = swap_byte(p_byte);
 174:	df df       	rcall	.-66     	; 0x134 <swap_byte>
		p_write = p_byte & 0x0F;
 176:	8f 70       	andi	r24, 0x0F	; 15
		LCD = p_write;
 178:	85 bb       	out	0x15, r24	; 21
		LCD |= (1 << E);
 17a:	ad 9a       	sbi	0x15, 5	; 21
		LCD &= ~(1 << E);
 17c:	ad 98       	cbi	0x15, 5	; 21
 17e:	87 e8       	ldi	r24, 0x87	; 135
 180:	93 e1       	ldi	r25, 0x13	; 19
 182:	01 97       	sbiw	r24, 0x01	; 1
 184:	f1 f7       	brne	.-4      	; 0x182 <commands+0x1c>
 186:	00 c0       	rjmp	.+0      	; 0x188 <commands+0x22>
 188:	00 00       	nop
	}
	_delay_ms(20);
	LCD |= (1 << RS);
 18a:	ac 9a       	sbi	0x15, 4	; 21
 18c:	08 95       	ret

0000018e <LCD_Init>:
* 
*
**************************************************************************/

void LCD_Init(){
	LCD_D = 0xFF;
 18e:	8f ef       	ldi	r24, 0xFF	; 255
 190:	84 bb       	out	0x14, r24	; 20
	position = 0;
 192:	10 92 a1 00 	sts	0x00A1, r1
 196:	87 e8       	ldi	r24, 0x87	; 135
 198:	93 e1       	ldi	r25, 0x13	; 19
 19a:	01 97       	sbiw	r24, 0x01	; 1
 19c:	f1 f7       	brne	.-4      	; 0x19a <LCD_Init+0xc>
 19e:	00 c0       	rjmp	.+0      	; 0x1a0 <LCD_Init+0x12>
 1a0:	00 00       	nop
	unsigned char byte;
	

	_delay_ms(20);
	byte = 0b00000011;
	function_set(byte);	//Set DL at High
 1a2:	83 e0       	ldi	r24, 0x03	; 3
 1a4:	c1 df       	rcall	.-126    	; 0x128 <function_set>
 1a6:	83 ec       	ldi	r24, 0xC3	; 195
 1a8:	99 e0       	ldi	r25, 0x09	; 9
 1aa:	01 97       	sbiw	r24, 0x01	; 1
 1ac:	f1 f7       	brne	.-4      	; 0x1aa <LCD_Init+0x1c>
 1ae:	00 c0       	rjmp	.+0      	; 0x1b0 <LCD_Init+0x22>
 1b0:	00 00       	nop
	_delay_ms(10);
	byte = 0b00000011;
	function_set(byte);	//Set DL at High
 1b2:	83 e0       	ldi	r24, 0x03	; 3
 1b4:	b9 df       	rcall	.-142    	; 0x128 <function_set>
 1b6:	83 ec       	ldi	r24, 0xC3	; 195
 1b8:	99 e0       	ldi	r25, 0x09	; 9
 1ba:	01 97       	sbiw	r24, 0x01	; 1
 1bc:	f1 f7       	brne	.-4      	; 0x1ba <LCD_Init+0x2c>
 1be:	00 c0       	rjmp	.+0      	; 0x1c0 <LCD_Init+0x32>
 1c0:	00 00       	nop
	_delay_ms(10);
	byte = 0b00000011;
	function_set(byte);	//Set DL at High
 1c2:	83 e0       	ldi	r24, 0x03	; 3
 1c4:	b1 df       	rcall	.-158    	; 0x128 <function_set>
 1c6:	83 ec       	ldi	r24, 0xC3	; 195
 1c8:	99 e0       	ldi	r25, 0x09	; 9
 1ca:	01 97       	sbiw	r24, 0x01	; 1
 1cc:	f1 f7       	brne	.-4      	; 0x1ca <LCD_Init+0x3c>
 1ce:	00 c0       	rjmp	.+0      	; 0x1d0 <LCD_Init+0x42>
 1d0:	00 00       	nop
	_delay_ms(10);
	byte = 0b00000010;
	function_set(byte);	//Set DL at High
 1d2:	82 e0       	ldi	r24, 0x02	; 2
 1d4:	a9 df       	rcall	.-174    	; 0x128 <function_set>
 1d6:	83 ec       	ldi	r24, 0xC3	; 195
 1d8:	99 e0       	ldi	r25, 0x09	; 9
 1da:	01 97       	sbiw	r24, 0x01	; 1
 1dc:	f1 f7       	brne	.-4      	; 0x1da <LCD_Init+0x4c>
 1de:	00 c0       	rjmp	.+0      	; 0x1e0 <LCD_Init+0x52>
 1e0:	00 00       	nop
	_delay_ms(10);
	byte = 0b00101000;	
	commands(byte);		//Set DL at High. Set Display Line Number and character Font
 1e2:	88 e2       	ldi	r24, 0x28	; 40
 1e4:	c0 df       	rcall	.-128    	; 0x166 <commands>
 1e6:	83 ec       	ldi	r24, 0xC3	; 195
 1e8:	99 e0       	ldi	r25, 0x09	; 9
 1ea:	01 97       	sbiw	r24, 0x01	; 1
 1ec:	f1 f7       	brne	.-4      	; 0x1ea <LCD_Init+0x5c>
 1ee:	00 c0       	rjmp	.+0      	; 0x1f0 <LCD_Init+0x62>
 1f0:	00 00       	nop
	_delay_ms(10);
	byte = 0b00001111;
	commands(byte);	
 1f2:	8f e0       	ldi	r24, 0x0F	; 15
 1f4:	b8 df       	rcall	.-144    	; 0x166 <commands>
 1f6:	83 ec       	ldi	r24, 0xC3	; 195
 1f8:	99 e0       	ldi	r25, 0x09	; 9
 1fa:	01 97       	sbiw	r24, 0x01	; 1
 1fc:	f1 f7       	brne	.-4      	; 0x1fa <LCD_Init+0x6c>
 1fe:	00 c0       	rjmp	.+0      	; 0x200 <LCD_Init+0x72>
 200:	00 00       	nop
	_delay_ms(10);
	byte = 0b00000001;
	commands(byte);			//Clear Display
 202:	81 e0       	ldi	r24, 0x01	; 1
 204:	b0 df       	rcall	.-160    	; 0x166 <commands>
 206:	83 ec       	ldi	r24, 0xC3	; 195
 208:	99 e0       	ldi	r25, 0x09	; 9
 20a:	01 97       	sbiw	r24, 0x01	; 1
 20c:	f1 f7       	brne	.-4      	; 0x20a <LCD_Init+0x7c>
 20e:	00 c0       	rjmp	.+0      	; 0x210 <LCD_Init+0x82>
 210:	00 00       	nop
	_delay_ms(10);
	byte = 0b00000110;
	commands(byte);			//Set Shift Modes
 212:	86 e0       	ldi	r24, 0x06	; 6
 214:	a8 df       	rcall	.-176    	; 0x166 <commands>
 216:	83 ec       	ldi	r24, 0xC3	; 195
 218:	99 e0       	ldi	r25, 0x09	; 9
 21a:	01 97       	sbiw	r24, 0x01	; 1
 21c:	f1 f7       	brne	.-4      	; 0x21a <LCD_Init+0x8c>
 21e:	00 c0       	rjmp	.+0      	; 0x220 <LCD_Init+0x92>
 220:	00 00       	nop
 222:	08 95       	ret

00000224 <LCD_STR>:
*
* Beschreibung: Berechnet den Wert aus einer Hochrechnung aus
*
**************************************************************************/
void LCD_STR(char *p_string)
{
 224:	cf 93       	push	r28
 226:	df 93       	push	r29
 228:	ec 01       	movw	r28, r24
	while(*p_string != 0) {
 22a:	01 c0       	rjmp	.+2      	; 0x22e <LCD_STR+0xa>
*
* Beschreibung: Berechnet den Wert aus einer Hochrechnung aus
*
**************************************************************************/
void LCD_CHR(unsigned char p_byte){
	write(p_byte);
 22c:	85 df       	rcall	.-246    	; 0x138 <write>
* Beschreibung: Berechnet den Wert aus einer Hochrechnung aus
*
**************************************************************************/
void LCD_STR(char *p_string)
{
	while(*p_string != 0) {
 22e:	89 91       	ld	r24, Y+
 230:	81 11       	cpse	r24, r1
 232:	fc cf       	rjmp	.-8      	; 0x22c <LCD_STR+0x8>
		LCD_CHR(*p_string);
		p_string++;
	}
}
 234:	df 91       	pop	r29
 236:	cf 91       	pop	r28
 238:	08 95       	ret

0000023a <LCD_CLR>:
* Beschreibung: Löscht das Display
*
**************************************************************************/
void LCD_CLR()
{		
	position = 0;
 23a:	10 92 a1 00 	sts	0x00A1, r1
	commands(1);
 23e:	81 e0       	ldi	r24, 0x01	; 1
 240:	92 cf       	rjmp	.-220    	; 0x166 <commands>

00000242 <SET_DCB>:
*
**************************************************************************/
void SET_DCB()
{
	unsigned char write;
	write = S_LCD;
 242:	80 91 76 00 	lds	r24, 0x0076
	write += 8;
	commands(write);
 246:	88 5f       	subi	r24, 0xF8	; 248
 248:	8e cf       	rjmp	.-228    	; 0x166 <commands>

0000024a <CURB_OFF>:
* Beschreibung: Schaltet Cursor aus
*
**************************************************************************/
void CURB_OFF()
{
	S_LCD &= ~(1 << CURSOR_B);
 24a:	80 91 76 00 	lds	r24, 0x0076
 24e:	8e 7f       	andi	r24, 0xFE	; 254
 250:	80 93 76 00 	sts	0x0076, r24
	SET_DCB();
 254:	f6 cf       	rjmp	.-20     	; 0x242 <SET_DCB>

00000256 <CURB_ON>:
* Beschreibung: Schaltet Cursor ein
*
**************************************************************************/
void CURB_ON()
{
	S_LCD |= (1 << CURSOR_B);
 256:	80 91 76 00 	lds	r24, 0x0076
 25a:	81 60       	ori	r24, 0x01	; 1
 25c:	80 93 76 00 	sts	0x0076, r24
	SET_DCB();
 260:	f0 cf       	rjmp	.-32     	; 0x242 <SET_DCB>

00000262 <CUR_OFF>:
* Beschreibung: Schaltet Cursor aus
*
**************************************************************************/
void CUR_OFF()
{
	S_LCD &= ~(1 << CURSOR);
 262:	80 91 76 00 	lds	r24, 0x0076
 266:	8d 7f       	andi	r24, 0xFD	; 253
 268:	80 93 76 00 	sts	0x0076, r24
	SET_DCB();
 26c:	ea cf       	rjmp	.-44     	; 0x242 <SET_DCB>

0000026e <CUR_ON>:
* Beschreibung: Schaltet Cursor ein
*
**************************************************************************/
void CUR_ON()
{
	S_LCD |= (1 << CURSOR);
 26e:	80 91 76 00 	lds	r24, 0x0076
 272:	82 60       	ori	r24, 0x02	; 2
 274:	80 93 76 00 	sts	0x0076, r24
	SET_DCB();
 278:	e4 cf       	rjmp	.-56     	; 0x242 <SET_DCB>

0000027a <LCD_OFF>:
*
* Beschreibung: Schaltet Display aus
*
**************************************************************************/
void LCD_OFF(){
	S_LCD &= ~(1 << DISPLAY);
 27a:	80 91 76 00 	lds	r24, 0x0076
 27e:	8b 7f       	andi	r24, 0xFB	; 251
 280:	80 93 76 00 	sts	0x0076, r24
	SET_DCB();
 284:	de cf       	rjmp	.-68     	; 0x242 <SET_DCB>

00000286 <LCD_ON>:
* Beschreibung: Schaltet Display ein
*
**************************************************************************/
void LCD_ON()
{
	S_LCD |= (1 << DISPLAY);
 286:	80 91 76 00 	lds	r24, 0x0076
 28a:	84 60       	ori	r24, 0x04	; 4
 28c:	80 93 76 00 	sts	0x0076, r24
	SET_DCB();
 290:	d8 cf       	rjmp	.-80     	; 0x242 <SET_DCB>

00000292 <LCD_RAM>:
	/*if(p_Adresse >= 41){
		p_Adresse += 24;
	}
	position = p_Adresse;*/
	p_Adresse |= 0b10000000;
	commands(p_Adresse);
 292:	80 68       	ori	r24, 0x80	; 128
 294:	68 df       	rcall	.-304    	; 0x166 <commands>
 296:	83 ec       	ldi	r24, 0xC3	; 195
 298:	99 e0       	ldi	r25, 0x09	; 9
 29a:	01 97       	sbiw	r24, 0x01	; 1
 29c:	f1 f7       	brne	.-4      	; 0x29a <LCD_RAM+0x8>
 29e:	00 c0       	rjmp	.+0      	; 0x2a0 <LCD_RAM+0xe>
 2a0:	00 00       	nop
 2a2:	08 95       	ret

000002a4 <setPosition>:
	LCD &= ~(1 << RS);
	//setPosition(position+1);
}

void setPosition(uint8_t pos){
	switch(pos){
 2a4:	88 32       	cpi	r24, 0x28	; 40
 2a6:	59 f0       	breq	.+22     	; 0x2be <setPosition+0x1a>
 2a8:	18 f4       	brcc	.+6      	; 0x2b0 <setPosition+0xc>
 2aa:	84 31       	cpi	r24, 0x14	; 20
 2ac:	59 f4       	brne	.+22     	; 0x2c4 <setPosition+0x20>
 2ae:	07 c0       	rjmp	.+14     	; 0x2be <setPosition+0x1a>
 2b0:	8c 33       	cpi	r24, 0x3C	; 60
 2b2:	19 f0       	breq	.+6      	; 0x2ba <setPosition+0x16>
 2b4:	80 35       	cpi	r24, 0x50	; 80
 2b6:	31 f4       	brne	.+12     	; 0x2c4 <setPosition+0x20>
 2b8:	04 c0       	rjmp	.+8      	; 0x2c2 <setPosition+0x1e>
		case 20:
		case 40:
			pos += 20;
			break;
		case 60:
			pos -= 40;
 2ba:	84 e1       	ldi	r24, 0x14	; 20
 2bc:	03 c0       	rjmp	.+6      	; 0x2c4 <setPosition+0x20>

void setPosition(uint8_t pos){
	switch(pos){
		case 20:
		case 40:
			pos += 20;
 2be:	8c 5e       	subi	r24, 0xEC	; 236
			break;
 2c0:	01 c0       	rjmp	.+2      	; 0x2c4 <setPosition+0x20>
		case 60:
			pos -= 40;
			break;
		case 80:
			pos = 0;
 2c2:	80 e0       	ldi	r24, 0x00	; 0
			break;
	}
	LCD_RAM(pos);
 2c4:	e6 cf       	rjmp	.-52     	; 0x292 <LCD_RAM>

000002c6 <LCD_INT>:
*
* Beschreibung: Setzt Display-Ram-Adresse
*
**************************************************************************/
void LCD_INT(uint8_t p_Zahl)
{
 2c6:	1f 93       	push	r17
 2c8:	cf 93       	push	r28
 2ca:	df 93       	push	r29
 2cc:	cd b7       	in	r28, 0x3d	; 61
 2ce:	de b7       	in	r29, 0x3e	; 62
 2d0:	e2 97       	sbiw	r28, 0x32	; 50
 2d2:	0f b6       	in	r0, 0x3f	; 63
 2d4:	f8 94       	cli
 2d6:	de bf       	out	0x3e, r29	; 62
 2d8:	0f be       	out	0x3f, r0	; 63
 2da:	cd bf       	out	0x3d, r28	; 61
		p_Zahl *= -1;
		LCD_CHR('-');
	}
	unsigned char naZahl[50];
	unsigned char length = 0;
	naZahl[0] = 0b00110000;
 2dc:	90 e3       	ldi	r25, 0x30	; 48
 2de:	99 83       	std	Y+1, r25	; 0x01
	for(unsigned char Count = 0; p_Zahl > 0; Count ++)
 2e0:	20 e0       	ldi	r18, 0x00	; 0
	{
		p_Zahl *= -1;
		LCD_CHR('-');
	}
	unsigned char naZahl[50];
	unsigned char length = 0;
 2e2:	10 e0       	ldi	r17, 0x00	; 0
	naZahl[0] = 0b00110000;
	for(unsigned char Count = 0; p_Zahl > 0; Count ++)
	{
		unsigned char nZahl = p_Zahl % 10;
 2e4:	3a e0       	ldi	r19, 0x0A	; 10
		LCD_CHR('-');
	}
	unsigned char naZahl[50];
	unsigned char length = 0;
	naZahl[0] = 0b00110000;
	for(unsigned char Count = 0; p_Zahl > 0; Count ++)
 2e6:	0c c0       	rjmp	.+24     	; 0x300 <LCD_INT+0x3a>
	{
		unsigned char nZahl = p_Zahl % 10;
 2e8:	63 2f       	mov	r22, r19
 2ea:	d9 d0       	rcall	.+434    	; 0x49e <__udivmodqi4>
		nZahl |= 0b00110000;
		naZahl[Count] = nZahl;
 2ec:	e1 e0       	ldi	r30, 0x01	; 1
 2ee:	f0 e0       	ldi	r31, 0x00	; 0
 2f0:	ec 0f       	add	r30, r28
 2f2:	fd 1f       	adc	r31, r29
 2f4:	e2 0f       	add	r30, r18
 2f6:	f1 1d       	adc	r31, r1
	unsigned char length = 0;
	naZahl[0] = 0b00110000;
	for(unsigned char Count = 0; p_Zahl > 0; Count ++)
	{
		unsigned char nZahl = p_Zahl % 10;
		nZahl |= 0b00110000;
 2f8:	90 63       	ori	r25, 0x30	; 48
		naZahl[Count] = nZahl;
 2fa:	90 83       	st	Z, r25
		p_Zahl /= 10;
		length = Count;
 2fc:	12 2f       	mov	r17, r18
		LCD_CHR('-');
	}
	unsigned char naZahl[50];
	unsigned char length = 0;
	naZahl[0] = 0b00110000;
	for(unsigned char Count = 0; p_Zahl > 0; Count ++)
 2fe:	2f 5f       	subi	r18, 0xFF	; 255
 300:	81 11       	cpse	r24, r1
 302:	f2 cf       	rjmp	.-28     	; 0x2e8 <LCD_INT+0x22>
 304:	09 c0       	rjmp	.+18     	; 0x318 <LCD_INT+0x52>
		p_Zahl /= 10;
		length = Count;
	}
	for(unsigned char Count = length; Count > 0; Count --)
	{
		write(naZahl[Count]);
 306:	e1 e0       	ldi	r30, 0x01	; 1
 308:	f0 e0       	ldi	r31, 0x00	; 0
 30a:	ec 0f       	add	r30, r28
 30c:	fd 1f       	adc	r31, r29
 30e:	e1 0f       	add	r30, r17
 310:	f1 1d       	adc	r31, r1
 312:	80 81       	ld	r24, Z
 314:	11 df       	rcall	.-478    	; 0x138 <write>
		nZahl |= 0b00110000;
		naZahl[Count] = nZahl;
		p_Zahl /= 10;
		length = Count;
	}
	for(unsigned char Count = length; Count > 0; Count --)
 316:	11 50       	subi	r17, 0x01	; 1
 318:	11 11       	cpse	r17, r1
 31a:	f5 cf       	rjmp	.-22     	; 0x306 <LCD_INT+0x40>
	{
		write(naZahl[Count]);
	}
	write(naZahl[0]);
 31c:	89 81       	ldd	r24, Y+1	; 0x01
}
 31e:	e2 96       	adiw	r28, 0x32	; 50
 320:	0f b6       	in	r0, 0x3f	; 63
 322:	f8 94       	cli
 324:	de bf       	out	0x3e, r29	; 62
 326:	0f be       	out	0x3f, r0	; 63
 328:	cd bf       	out	0x3d, r28	; 61
 32a:	df 91       	pop	r29
 32c:	cf 91       	pop	r28
 32e:	1f 91       	pop	r17
	}
	for(unsigned char Count = length; Count > 0; Count --)
	{
		write(naZahl[Count]);
	}
	write(naZahl[0]);
 330:	03 cf       	rjmp	.-506    	; 0x138 <write>

00000332 <go2Field>:
#include "commands.h"
#include "display.h"

extern settings AppSettings;

void go2Field(uint8_t Pos) {
 332:	cf 93       	push	r28
	field *Field = AppSettings.currentLayer->Fields[0];
 334:	a0 91 62 00 	lds	r26, 0x0062
 338:	b0 91 63 00 	lds	r27, 0x0063
 33c:	13 96       	adiw	r26, 0x03	; 3
 33e:	ed 91       	ld	r30, X+
 340:	fc 91       	ld	r31, X
 342:	14 97       	sbiw	r26, 0x04	; 4
	uint8_t PosX = (Pos & 0xC0) >> 6;
 344:	48 2f       	mov	r20, r24
 346:	42 95       	swap	r20
 348:	46 95       	lsr	r20
 34a:	46 95       	lsr	r20
 34c:	43 70       	andi	r20, 0x03	; 3
	uint8_t PosY = Pos & 0x3F;
 34e:	8f 73       	andi	r24, 0x3F	; 63
	uint8_t Index = 0;
 350:	c0 e0       	ldi	r28, 0x00	; 0

	while(Field != NULL && Field->Pos.PosX != PosX && Field->Pos.PosY != PosY ) {
 352:	50 e0       	ldi	r21, 0x00	; 0
 354:	90 e0       	ldi	r25, 0x00	; 0
 356:	09 c0       	rjmp	.+18     	; 0x36a <go2Field+0x38>
		Field = AppSettings.currentLayer->Fields[Index++];
 358:	fd 01       	movw	r30, r26
 35a:	ec 0f       	add	r30, r28
 35c:	f1 1d       	adc	r31, r1
 35e:	ec 0f       	add	r30, r28
 360:	f1 1d       	adc	r31, r1
 362:	03 80       	ldd	r0, Z+3	; 0x03
 364:	f4 81       	ldd	r31, Z+4	; 0x04
 366:	e0 2d       	mov	r30, r0
 368:	cf 5f       	subi	r28, 0xFF	; 255
	field *Field = AppSettings.currentLayer->Fields[0];
	uint8_t PosX = (Pos & 0xC0) >> 6;
	uint8_t PosY = Pos & 0x3F;
	uint8_t Index = 0;

	while(Field != NULL && Field->Pos.PosX != PosX && Field->Pos.PosY != PosY ) {
 36a:	30 97       	sbiw	r30, 0x00	; 0
 36c:	99 f0       	breq	.+38     	; 0x394 <go2Field+0x62>
 36e:	20 81       	ld	r18, Z
 370:	62 2f       	mov	r22, r18
 372:	62 95       	swap	r22
 374:	66 95       	lsr	r22
 376:	66 95       	lsr	r22
 378:	63 70       	andi	r22, 0x03	; 3
 37a:	70 e0       	ldi	r23, 0x00	; 0
 37c:	64 17       	cp	r22, r20
 37e:	75 07       	cpc	r23, r21
 380:	29 f0       	breq	.+10     	; 0x38c <go2Field+0x5a>
 382:	2f 73       	andi	r18, 0x3F	; 63
 384:	30 e0       	ldi	r19, 0x00	; 0
 386:	28 17       	cp	r18, r24
 388:	39 07       	cpc	r19, r25
 38a:	31 f7       	brne	.-52     	; 0x358 <go2Field+0x26>
		Field = AppSettings.currentLayer->Fields[Index++];
	}
	
	if(Field != NULL){
		AppSettings.currentField = Field;
 38c:	f0 93 65 00 	sts	0x0065, r31
 390:	e0 93 64 00 	sts	0x0064, r30
	};
}
 394:	cf 91       	pop	r28
 396:	08 95       	ret

00000398 <go2Layer>:

void go2Layer(uint8_t LayerId){
 398:	cf 93       	push	r28
 39a:	df 93       	push	r29
	uint8_t Index = 0;
	layer *Layers = AppSettings.Layers[Index];	
 39c:	c0 91 66 00 	lds	r28, 0x0066
 3a0:	d0 91 67 00 	lds	r29, 0x0067
		AppSettings.currentField = Field;
	};
}

void go2Layer(uint8_t LayerId){
	uint8_t Index = 0;
 3a4:	90 e0       	ldi	r25, 0x00	; 0
	layer *Layers = AppSettings.Layers[Index];	
	while(Layers != NULL && Layers->Id != LayerId){
 3a6:	09 c0       	rjmp	.+18     	; 0x3ba <go2Layer+0x22>
		Index++;
 3a8:	9f 5f       	subi	r25, 0xFF	; 255
		Layers = AppSettings.Layers[Index];
 3aa:	e9 2f       	mov	r30, r25
 3ac:	f0 e0       	ldi	r31, 0x00	; 0
 3ae:	ee 0f       	add	r30, r30
 3b0:	ff 1f       	adc	r31, r31
 3b2:	ea 59       	subi	r30, 0x9A	; 154
 3b4:	ff 4f       	sbci	r31, 0xFF	; 255
 3b6:	c0 81       	ld	r28, Z
 3b8:	d1 81       	ldd	r29, Z+1	; 0x01
}

void go2Layer(uint8_t LayerId){
	uint8_t Index = 0;
	layer *Layers = AppSettings.Layers[Index];	
	while(Layers != NULL && Layers->Id != LayerId){
 3ba:	20 97       	sbiw	r28, 0x00	; 0
 3bc:	99 f0       	breq	.+38     	; 0x3e4 <go2Layer+0x4c>
 3be:	28 81       	ld	r18, Y
 3c0:	28 13       	cpse	r18, r24
 3c2:	f2 cf       	rjmp	.-28     	; 0x3a8 <go2Layer+0x10>
		Index++;
		Layers = AppSettings.Layers[Index];
	}

	if(Layers != NULL){
		LCD_CLR();
 3c4:	3a df       	rcall	.-396    	; 0x23a <LCD_CLR>
		AppSettings.currentLayer = Layers;
 3c6:	d0 93 63 00 	sts	0x0063, r29
 3ca:	c0 93 62 00 	sts	0x0062, r28
		AppSettings.Status = 7;
 3ce:	80 91 61 00 	lds	r24, 0x0061
 3d2:	87 60       	ori	r24, 0x07	; 7
 3d4:	80 93 61 00 	sts	0x0061, r24
		// erstes feld ist einstiegspunkt
		AppSettings.currentField = Layers->Fields[0];
 3d8:	8b 81       	ldd	r24, Y+3	; 0x03
 3da:	9c 81       	ldd	r25, Y+4	; 0x04
 3dc:	90 93 65 00 	sts	0x0065, r25
 3e0:	80 93 64 00 	sts	0x0064, r24
	}
}
 3e4:	df 91       	pop	r29
 3e6:	cf 91       	pop	r28
 3e8:	08 95       	ret

000003ea <bit_pos>:
	}
	
	return Code;
}

uint8_t bit_pos(uint8_t Value){
 3ea:	98 2f       	mov	r25, r24
	// position des bit
	uint8_t Position = 0;
 3ec:	80 e0       	ldi	r24, 0x00	; 0
	while(Value){
 3ee:	02 c0       	rjmp	.+4      	; 0x3f4 <bit_pos+0xa>
		Position++;
 3f0:	8f 5f       	subi	r24, 0xFF	; 255
		Value >>= 1;
 3f2:	96 95       	lsr	r25
}

uint8_t bit_pos(uint8_t Value){
	// position des bit
	uint8_t Position = 0;
	while(Value){
 3f4:	91 11       	cpse	r25, r1
 3f6:	fc cf       	rjmp	.-8      	; 0x3f0 <bit_pos+0x6>
		Position++;
		Value >>= 1;
	}
	return Position;
}
 3f8:	08 95       	ret

000003fa <scanCode>:
*				5  6  7  8
*				9 10 11 12
*			   13 14 15 16
*
**************************************************************************/
uint8_t scanCode(){
 3fa:	0f 93       	push	r16
 3fc:	1f 93       	push	r17
 3fe:	cf 93       	push	r28
 400:	df 93       	push	r29
	KEYS = LNIB;
 402:	8f e0       	ldi	r24, 0x0F	; 15
 404:	8a bb       	out	0x1a, r24	; 26
	ROW = HNIB;
 406:	80 ef       	ldi	r24, 0xF0	; 240
 408:	8b bb       	out	0x1b, r24	; 27
 40a:	c0 e0       	ldi	r28, 0x00	; 0
 40c:	d0 e0       	ldi	r29, 0x00	; 0
	uint8_t mpr = 0;
	uint8_t mpr2 = 0;
	static uint8_t Last = 0xFF;

	for(Count = 0; (Code == 0xFF) && (Count < NUMROWS); Count++) {
		ROW = ~(1 << Count);
 40e:	01 e0       	ldi	r16, 0x01	; 1
 410:	10 e0       	ldi	r17, 0x00	; 0
 412:	c8 01       	movw	r24, r16
 414:	0c 2e       	mov	r0, r28
 416:	01 c0       	rjmp	.+2      	; 0x41a <scanCode+0x20>
 418:	88 0f       	add	r24, r24
 41a:	0a 94       	dec	r0
 41c:	ea f7       	brpl	.-6      	; 0x418 <scanCode+0x1e>
 41e:	80 95       	com	r24
 420:	8b bb       	out	0x1b, r24	; 27
		
		asm volatile ("nop");
 422:	00 00       	nop
		mpr = (~(COLUMN) >> 4) & LNIB;
 424:	89 b3       	in	r24, 0x19	; 25
 426:	90 e0       	ldi	r25, 0x00	; 0
 428:	80 95       	com	r24
 42a:	90 95       	com	r25
 42c:	24 e0       	ldi	r18, 0x04	; 4
 42e:	95 95       	asr	r25
 430:	87 95       	ror	r24
 432:	2a 95       	dec	r18
 434:	e1 f7       	brne	.-8      	; 0x42e <scanCode+0x34>
 436:	8f 70       	andi	r24, 0x0F	; 15
 438:	99 27       	eor	r25, r25
 43a:	e7 e8       	ldi	r30, 0x87	; 135
 43c:	f3 e1       	ldi	r31, 0x13	; 19
 43e:	31 97       	sbiw	r30, 0x01	; 1
 440:	f1 f7       	brne	.-4      	; 0x43e <scanCode+0x44>
 442:	00 c0       	rjmp	.+0      	; 0x444 <scanCode+0x4a>
 444:	00 00       	nop
		//entprellung
		_delay_ms(20);
		mpr2 = (~(COLUMN) >> 4) & LNIB;
 446:	29 b3       	in	r18, 0x19	; 25
 448:	30 e0       	ldi	r19, 0x00	; 0
 44a:	20 95       	com	r18
 44c:	30 95       	com	r19
 44e:	54 e0       	ldi	r21, 0x04	; 4
 450:	35 95       	asr	r19
 452:	27 95       	ror	r18
 454:	5a 95       	dec	r21
 456:	e1 f7       	brne	.-8      	; 0x450 <scanCode+0x56>
 458:	2f 70       	andi	r18, 0x0F	; 15
 45a:	33 27       	eor	r19, r19
		
		if((mpr == mpr2) && (mpr != 0) && (Last != mpr)) {
 45c:	82 13       	cpse	r24, r18
 45e:	0f c0       	rjmp	.+30     	; 0x47e <scanCode+0x84>
 460:	88 23       	and	r24, r24
 462:	69 f0       	breq	.+26     	; 0x47e <scanCode+0x84>
 464:	20 91 77 00 	lds	r18, 0x0077
 468:	28 17       	cp	r18, r24
 46a:	49 f0       	breq	.+18     	; 0x47e <scanCode+0x84>
			Last = Code = bit_pos(mpr) + Count * NUMROWS;
 46c:	be df       	rcall	.-132    	; 0x3ea <bit_pos>
*				5  6  7  8
*				9 10 11 12
*			   13 14 15 16
*
**************************************************************************/
uint8_t scanCode(){
 46e:	9c 2f       	mov	r25, r28
 470:	99 0f       	add	r25, r25
 472:	99 0f       	add	r25, r25
		//entprellung
		_delay_ms(20);
		mpr2 = (~(COLUMN) >> 4) & LNIB;
		
		if((mpr == mpr2) && (mpr != 0) && (Last != mpr)) {
			Last = Code = bit_pos(mpr) + Count * NUMROWS;
 474:	98 0f       	add	r25, r24
 476:	90 93 77 00 	sts	0x0077, r25
	uint8_t Code = 0xFF;
	uint8_t mpr = 0;
	uint8_t mpr2 = 0;
	static uint8_t Last = 0xFF;

	for(Count = 0; (Code == 0xFF) && (Count < NUMROWS); Count++) {
 47a:	9f 3f       	cpi	r25, 0xFF	; 255
 47c:	29 f4       	brne	.+10     	; 0x488 <scanCode+0x8e>
 47e:	21 96       	adiw	r28, 0x01	; 1
 480:	c4 30       	cpi	r28, 0x04	; 4
 482:	d1 05       	cpc	r29, r1
 484:	31 f6       	brne	.-116    	; 0x412 <scanCode+0x18>
 486:	9f ef       	ldi	r25, 0xFF	; 255
			Last = Code = bit_pos(mpr) + Count * NUMROWS;
		}
	}
	
	return Code;
}
 488:	89 2f       	mov	r24, r25
 48a:	df 91       	pop	r29
 48c:	cf 91       	pop	r28
 48e:	1f 91       	pop	r17
 490:	0f 91       	pop	r16
 492:	08 95       	ret

00000494 <main>:
*/

#define wait _delay_ms(1000);_delay_ms(1000);_delay_ms(1000);_delay_ms(1000)

int main(){
	init();
 494:	f4 dd       	rcall	.-1048   	; 0x7e <init>

	while(TRUE){
		process(scanCode());
 496:	b1 df       	rcall	.-158    	; 0x3fa <scanCode>
 498:	0e de       	rcall	.-996    	; 0xb6 <process>
		display();
 49a:	f9 dd       	rcall	.-1038   	; 0x8e <display>
 49c:	fc cf       	rjmp	.-8      	; 0x496 <main+0x2>

0000049e <__udivmodqi4>:
 49e:	99 1b       	sub	r25, r25
 4a0:	79 e0       	ldi	r23, 0x09	; 9
 4a2:	04 c0       	rjmp	.+8      	; 0x4ac <__udivmodqi4_ep>

000004a4 <__udivmodqi4_loop>:
 4a4:	99 1f       	adc	r25, r25
 4a6:	96 17       	cp	r25, r22
 4a8:	08 f0       	brcs	.+2      	; 0x4ac <__udivmodqi4_ep>
 4aa:	96 1b       	sub	r25, r22

000004ac <__udivmodqi4_ep>:
 4ac:	88 1f       	adc	r24, r24
 4ae:	7a 95       	dec	r23
 4b0:	c9 f7       	brne	.-14     	; 0x4a4 <__udivmodqi4_loop>
 4b2:	80 95       	com	r24
 4b4:	08 95       	ret

000004b6 <_exit>:
 4b6:	f8 94       	cli

000004b8 <__stop_program>:
 4b8:	ff cf       	rjmp	.-2      	; 0x4b8 <__stop_program>
